; Function Attrs: mustprogress nofree norecurse nosync nounwind willreturn memory(none) uwtable
define internal fastcc noundef zeroext i1 @_ZL15canConvert2Copyj(i32 noundef range(i32 1, 0) %0) unnamed_addr #3 {
  switch i32 %0, label %3 [
    i32 614, label %2
    i32 616, label %2
    i32 4729, label %2
    i32 4731, label %2
    i32 2951, label %2
    i32 2953, label %2
    i32 22190, label %2
    i32 22192, label %2
    i32 573, label %2
    i32 580, label %2
    i32 4688, label %2
    i32 4695, label %2
    i32 2910, label %2
    i32 2917, label %2
    i32 22149, label %2
    i32 22156, label %2
  ]

2:                                                ; preds = %1, %1, %1, %1, %1, %1, %1, %1, %1, %1, %1, %1, %1, %1, %1, %1
  br label %3

3:                                                ; preds = %1, %2
  %.0 = phi i1 [ true, %2 ], [ false, %1 ]
  ret i1 %.0
}